target datalayout = "e-m:e-p270:32:32-p271:32:32-p272:64:64-i64:64-i128:128-f80:128-n8:16:32:64-S128"
target triple = "x86_64-pc-linux-gnu"

%struct._address = type { i32, i32, ptr, ptr }

@.str.9876 = private unnamed_addr constant [7 x i8] c"0x%04x\00", align 1

; Function Attrs: null_pointer_is_valid sspstrong uwtable
define internal i32 @wlan_aid_to_str(ptr noundef %0, ptr noundef %1, i32 noundef %2) #1 {
  %4 = alloca ptr, align 8
  %5 = alloca ptr, align 8
  %6 = alloca i32, align 4
  %7 = alloca i32, align 4
  store ptr %0, ptr %4, align 8
  store ptr %1, ptr %5, align 8
  store i32 %2, ptr %6, align 4
  call void @llvm.lifetime.start.p0(i64 4, ptr %7) #19
  %8 = load ptr, ptr %5, align 8
  %9 = load i32, ptr %6, align 4
  %10 = sext i32 %9 to i64
  %11 = load ptr, ptr %5, align 8
  %12 = call i64 @llvm.objectsize.i64.p0(ptr %11, i1 false, i1 true, i1 true)
  %13 = load ptr, ptr %4, align 8
  %14 = getelementptr inbounds nuw %struct._address, ptr %13, i32 0, i32 2
  %15 = load ptr, ptr %14, align 8
  %16 = load i16, ptr %15, align 2
  %17 = zext i16 %16 to i32
  %18 = call i32 (ptr, i64, i32, i64, ptr, ...) @__snprintf_chk(ptr noundef %8, i64 noundef %10, i32 noundef 2, i64 noundef %12, ptr noundef @.str.9876, i32 noundef %17)
  store i32 %18, ptr %7, align 4
  %19 = load i32, ptr %7, align 4
  %20 = add i32 %19, 1
  call void @llvm.lifetime.end.p0(i64 4, ptr %7) #19
  ret i32 %20
}