; Function Attrs: nofree null_pointer_is_valid sspstrong uwtable
define internal i32 @wlan_aid_to_str(ptr noundef readonly captures(none) %0, ptr noundef %1, i32 noundef %2) #4 {
  %4 = sext i32 %2 to i64
  %5 = getelementptr inbounds nuw i8, ptr %0, i64 8
  %6 = load ptr, ptr %5, align 8
  %7 = load i16, ptr %6, align 2
  %8 = zext i16 %7 to i32
  %9 = tail call i32 (ptr, i64, i32, i64, ptr, ...) @__snprintf_chk(ptr noundef %1, i64 noundef %4, i32 noundef 2, i64 noundef -1, ptr noundef nonnull @.str.9876, i32 noundef %8)
  %10 = add i32 %9, 1
  ret i32 %10
}